target datalayout = "e-m:e-p270:32:32-p271:32:32-p272:64:64-i64:64-i128:128-f80:128-n8:16:32:64-S128"
target triple = "x86_64-pc-linux-gnu"

%"struct.OpenImageIO::v3_1_0::TypeDesc" = type { i8, i8, i8, i8, i32 }
%"struct.std::atomic" = type { %"struct.std::__atomic_base" }
%"struct.std::__atomic_base" = type { i8 }
%"class.OpenImageIO::v3_1_0::ImageSpec" = type { i32, i32, i32, i32, i32, i32, i32, i32, i32, i32, i32, i32, i32, i32, i32, i32, %"struct.OpenImageIO::v3_1_0::TypeDesc", %"class.std::vector", %"class.std::vector.0", i32, i32, i8, %"class.OpenImageIO::v3_1_0::ParamValueList" }
%"class.std::vector" = type { %"struct.std::_Vector_base" }
%"struct.std::_Vector_base" = type { %"struct.std::_Vector_base<OpenImageIO::v3_1_0::TypeDesc, std::allocator<OpenImageIO::v3_1_0::TypeDesc>>::_Vector_impl" }
%"struct.std::_Vector_base<OpenImageIO::v3_1_0::TypeDesc, std::allocator<OpenImageIO::v3_1_0::TypeDesc>>::_Vector_impl" = type { %"struct.std::_Vector_base<OpenImageIO::v3_1_0::TypeDesc, std::allocator<OpenImageIO::v3_1_0::TypeDesc>>::_Vector_impl_data" }
%"struct.std::_Vector_base<OpenImageIO::v3_1_0::TypeDesc, std::allocator<OpenImageIO::v3_1_0::TypeDesc>>::_Vector_impl_data" = type { ptr, ptr, ptr }
%"class.std::vector.0" = type { %"struct.std::_Vector_base.1" }
%"struct.std::_Vector_base.1" = type { %"struct.std::_Vector_base<std::__cxx11::basic_string<char>, std::allocator<std::__cxx11::basic_string<char>>>::_Vector_impl" }
%"struct.std::_Vector_base<std::__cxx11::basic_string<char>, std::allocator<std::__cxx11::basic_string<char>>>::_Vector_impl" = type { %"struct.std::_Vector_base<std::__cxx11::basic_string<char>, std::allocator<std::__cxx11::basic_string<char>>>::_Vector_impl_data" }
%"struct.std::_Vector_base<std::__cxx11::basic_string<char>, std::allocator<std::__cxx11::basic_string<char>>>::_Vector_impl_data" = type { ptr, ptr, ptr }
%"class.OpenImageIO::v3_1_0::ParamValueList" = type { %"class.std::vector.5" }
%"class.std::vector.5" = type { %"struct.std::_Vector_base.6" }
%"struct.std::_Vector_base.6" = type { %"struct.std::_Vector_base<OpenImageIO::v3_1_0::ParamValue, std::allocator<OpenImageIO::v3_1_0::ParamValue>>::_Vector_impl" }
%"struct.std::_Vector_base<OpenImageIO::v3_1_0::ParamValue, std::allocator<OpenImageIO::v3_1_0::ParamValue>>::_Vector_impl" = type { %"struct.std::_Vector_base<OpenImageIO::v3_1_0::ParamValue, std::allocator<OpenImageIO::v3_1_0::ParamValue>>::_Vector_impl_data" }
%"struct.std::_Vector_base<OpenImageIO::v3_1_0::ParamValue, std::allocator<OpenImageIO::v3_1_0::ParamValue>>::_Vector_impl_data" = type { ptr, ptr, ptr }
%"struct.OpenImageIO::v3_1_0::OpenEXRCoreInput::PartInfo" = type { %"struct.std::atomic", %"class.OpenImageIO::v3_1_0::ImageSpec", i32, i32, i32, i32, i8, i32, %struct.exr_attr_box2i_t, %struct.exr_attr_box2i_t, %"class.std::vector.42", %"class.std::vector.47" }
%struct.exr_attr_box2i_t = type { %struct.exr_attr_v2i_t, %struct.exr_attr_v2i_t }
%struct.exr_attr_v2i_t = type { %union.anon.41 }
%union.anon.41 = type { %struct.anon }
%struct.anon = type { i32, i32 }
%"class.std::vector.42" = type { %"struct.std::_Vector_base.43" }
%"struct.std::_Vector_base.43" = type { %"struct.std::_Vector_base<exr_pixel_type_t, std::allocator<exr_pixel_type_t>>::_Vector_impl" }
%"struct.std::_Vector_base<exr_pixel_type_t, std::allocator<exr_pixel_type_t>>::_Vector_impl" = type { %"struct.std::_Vector_base<exr_pixel_type_t, std::allocator<exr_pixel_type_t>>::_Vector_impl_data" }
%"struct.std::_Vector_base<exr_pixel_type_t, std::allocator<exr_pixel_type_t>>::_Vector_impl_data" = type { ptr, ptr, ptr }
%"class.std::vector.47" = type { %"struct.std::_Vector_base.48" }
%"struct.std::_Vector_base.48" = type { %"struct.std::_Vector_base<int, std::allocator<int>>::_Vector_impl" }
%"struct.std::_Vector_base<int, std::allocator<int>>::_Vector_impl" = type { %"struct.std::_Vector_base<int, std::allocator<int>>::_Vector_impl_data" }
%"struct.std::_Vector_base<int, std::allocator<int>>::_Vector_impl_data" = type { ptr, ptr, ptr }

@stderr = external global ptr, align 8
@.str.81 = private unnamed_addr constant [56 x i8] c"%s:%u: %s: Assertion '%s' failed: Unknown levelmode %d\0A\00", align 1
@.str.82 = private unnamed_addr constant [129 x i8] c"generated/home/dtcxzyw/WorkSpace/Projects/compilers/llvm-opt-benchmark/bench/oiio/OpenImageIO/src/openexr.imageio/exrinput_c.cpp\00", align 1
@__FUNCTION__._ZNK11OpenImageIO6v3_1_016OpenEXRCoreInput8PartInfo14compute_mipresEiRNS0_9ImageSpecE = private unnamed_addr constant [15 x i8] c"compute_mipres\00", align 1
@.str.83 = private unnamed_addr constant [2 x i8] c"0\00", align 1

; Function Attrs: inlinehint mustprogress nounwind uwtable
define linkonce_odr noundef nonnull align 4 dereferenceable(4) ptr @_ZSt3maxIiERKT_S2_S2_(ptr noundef nonnull align 4 dereferenceable(4) %0, ptr noundef nonnull align 4 dereferenceable(4) %1) #0 comdat {
  %3 = alloca ptr, align 8
  %4 = alloca ptr, align 8
  %5 = alloca ptr, align 8
  store ptr %0, ptr %4, align 8, !tbaa !223
  store ptr %1, ptr %5, align 8, !tbaa !223
  %6 = load ptr, ptr %4, align 8, !tbaa !223
  %7 = load i32, ptr %6, align 4, !tbaa !107
  %8 = load ptr, ptr %5, align 8, !tbaa !223
  %9 = load i32, ptr %8, align 4, !tbaa !107
  %10 = icmp slt i32 %7, %9
  br i1 %10, label %11, label %13

11:                                               ; preds = %2
  %12 = load ptr, ptr %5, align 8, !tbaa !223
  store ptr %12, ptr %3, align 8
  br label %15

13:                                               ; preds = %2
  %14 = load ptr, ptr %4, align 8, !tbaa !223
  store ptr %14, ptr %3, align 8
  br label %15

15:                                               ; preds = %13, %11
  %16 = load ptr, ptr %3, align 8
  ret ptr %16
}

; Function Attrs: mustprogress uwtable
define hidden void @_ZNK11OpenImageIO6v3_1_016OpenEXRCoreInput8PartInfo14compute_mipresEiRNS0_9ImageSpecE(ptr noundef nonnull align 8 dereferenceable(272) %0, i32 noundef %1, ptr noundef nonnull align 8 dereferenceable(160) %2) #6 align 2 {
  %4 = alloca ptr, align 8
  %5 = alloca i32, align 4
  %6 = alloca ptr, align 8
  %7 = alloca i32, align 4
  %8 = alloca i32, align 4
  %9 = alloca i32, align 4
  %10 = alloca i32, align 4
  %11 = alloca i32, align 4
  %12 = alloca %struct.exr_attr_box2i_t, align 1
  %13 = alloca %struct.exr_attr_box2i_t, align 1
  store ptr %0, ptr %4, align 8, !tbaa !155
  store i32 %1, ptr %5, align 4, !tbaa !107
  store ptr %2, ptr %6, align 8, !tbaa !116
  %14 = load ptr, ptr %4, align 8
  %15 = getelementptr inbounds nuw %"struct.OpenImageIO::v3_1_0::OpenEXRCoreInput::PartInfo", ptr %14, i32 0, i32 4
  %16 = load i32, ptr %15, align 8, !tbaa !173
  %17 = icmp eq i32 %16, 0
  br i1 %17, label %18, label %19

18:                                               ; preds = %3
  br label %162

19:                                               ; preds = %3
  call void @llvm.lifetime.start.p0(i64 4, ptr %7) #5
  %20 = getelementptr inbounds nuw %"struct.OpenImageIO::v3_1_0::OpenEXRCoreInput::PartInfo", ptr %14, i32 0, i32 2
  %21 = load i32, ptr %20, align 8, !tbaa !186
  store i32 %21, ptr %7, align 4, !tbaa !107
  call void @llvm.lifetime.start.p0(i64 4, ptr %8) #5
  %22 = getelementptr inbounds nuw %"struct.OpenImageIO::v3_1_0::OpenEXRCoreInput::PartInfo", ptr %14, i32 0, i32 3
  %23 = load i32, ptr %22, align 4, !tbaa !187
  store i32 %23, ptr %8, align 4, !tbaa !107
  %24 = getelementptr inbounds nuw %"struct.OpenImageIO::v3_1_0::OpenEXRCoreInput::PartInfo", ptr %14, i32 0, i32 4
  %25 = load i32, ptr %24, align 8, !tbaa !173
  %26 = icmp eq i32 %25, 1
  br i1 %26, label %27, label %58

27:                                               ; preds = %19
  call void @llvm.lifetime.start.p0(i64 4, ptr %9) #5
  %28 = load i32, ptr %5, align 4, !tbaa !107
  store i32 %28, ptr %9, align 4, !tbaa !107
  br label %29

29:                                               ; preds = %54, %27
  %30 = load i32, ptr %9, align 4, !tbaa !107
  %31 = icmp ne i32 %30, 0
  br i1 %31, label %33, label %32

32:                                               ; preds = %29
  call void @llvm.lifetime.end.p0(i64 4, ptr %9) #5
  br label %57

33:                                               ; preds = %29
  %34 = getelementptr inbounds nuw %"struct.OpenImageIO::v3_1_0::OpenEXRCoreInput::PartInfo", ptr %14, i32 0, i32 5
  %35 = load i32, ptr %34, align 4, !tbaa !200
  %36 = icmp eq i32 %35, 0
  br i1 %36, label %37, label %42

37:                                               ; preds = %33
  %38 = load i32, ptr %7, align 4, !tbaa !107
  %39 = sdiv i32 %38, 2
  store i32 %39, ptr %7, align 4, !tbaa !107
  %40 = load i32, ptr %8, align 4, !tbaa !107
  %41 = sdiv i32 %40, 2
  store i32 %41, ptr %8, align 4, !tbaa !107
  br label %49

42:                                               ; preds = %33
  %43 = load i32, ptr %7, align 4, !tbaa !107
  %44 = add nsw i32 %43, 1
  %45 = sdiv i32 %44, 2
  store i32 %45, ptr %7, align 4, !tbaa !107
  %46 = load i32, ptr %8, align 4, !tbaa !107
  %47 = add nsw i32 %46, 1
  %48 = sdiv i32 %47, 2
  store i32 %48, ptr %8, align 4, !tbaa !107
  br label %49

49:                                               ; preds = %42, %37
  call void @llvm.lifetime.start.p0(i64 4, ptr %10) #5
  store i32 1, ptr %10, align 4, !tbaa !107
  %50 = call noundef nonnull align 4 dereferenceable(4) ptr @_ZSt3maxIiERKT_S2_S2_(ptr noundef nonnull align 4 dereferenceable(4) %10, ptr noundef nonnull align 4 dereferenceable(4) %7)
  %51 = load i32, ptr %50, align 4, !tbaa !107
  store i32 %51, ptr %7, align 4, !tbaa !107
  call void @llvm.lifetime.end.p0(i64 4, ptr %10) #5
  call void @llvm.lifetime.start.p0(i64 4, ptr %11) #5
  store i32 1, ptr %11, align 4, !tbaa !107
  %52 = call noundef nonnull align 4 dereferenceable(4) ptr @_ZSt3maxIiERKT_S2_S2_(ptr noundef nonnull align 4 dereferenceable(4) %11, ptr noundef nonnull align 4 dereferenceable(4) %8)
  %53 = load i32, ptr %52, align 4, !tbaa !107
  store i32 %53, ptr %8, align 4, !tbaa !107
  call void @llvm.lifetime.end.p0(i64 4, ptr %11) #5
  br label %54

54:                                               ; preds = %49
  %55 = load i32, ptr %9, align 4, !tbaa !107
  %56 = add nsw i32 %55, -1
  store i32 %56, ptr %9, align 4, !tbaa !107
  br label %29, !llvm.loop !289

57:                                               ; preds = %32
  br label %69

58:                                               ; preds = %19
  %59 = getelementptr inbounds nuw %"struct.OpenImageIO::v3_1_0::OpenEXRCoreInput::PartInfo", ptr %14, i32 0, i32 4
  %60 = load i32, ptr %59, align 8, !tbaa !173
  %61 = icmp eq i32 %60, 2
  br i1 %61, label %62, label %63

62:                                               ; preds = %58
  br label %68

63:                                               ; preds = %58
  %64 = load ptr, ptr @stderr, align 8, !tbaa !290
  %65 = getelementptr inbounds nuw %"struct.OpenImageIO::v3_1_0::OpenEXRCoreInput::PartInfo", ptr %14, i32 0, i32 4
  %66 = load i32, ptr %65, align 8, !tbaa !173
  %67 = call i32 (ptr, ptr, ...) @fprintf(ptr noundef %64, ptr noundef @.str.81, ptr noundef @.str.82, i32 noundef 1015, ptr noundef @__FUNCTION__._ZNK11OpenImageIO6v3_1_016OpenEXRCoreInput8PartInfo14compute_mipresEiRNS0_9ImageSpecE, ptr noundef @.str.83, i32 noundef %66) #5
  br label %68

68:                                               ; preds = %63, %62
  br label %69

69:                                               ; preds = %68, %57
  %70 = load i32, ptr %7, align 4, !tbaa !107
  %71 = load ptr, ptr %6, align 8, !tbaa !116
  %72 = getelementptr inbounds nuw %"class.OpenImageIO::v3_1_0::ImageSpec", ptr %71, i32 0, i32 3
  store i32 %70, ptr %72, align 4, !tbaa !292
  %73 = load i32, ptr %8, align 4, !tbaa !107
  %74 = load ptr, ptr %6, align 8, !tbaa !116
  %75 = getelementptr inbounds nuw %"class.OpenImageIO::v3_1_0::ImageSpec", ptr %74, i32 0, i32 4
  store i32 %73, ptr %75, align 8, !tbaa !293
  call void @llvm.lifetime.start.p0(i64 16, ptr %12) #5
  %76 = getelementptr inbounds nuw %"struct.OpenImageIO::v3_1_0::OpenEXRCoreInput::PartInfo", ptr %14, i32 0, i32 8
  call void @llvm.memcpy.p0.p0.i64(ptr align 1 %12, ptr align 8 %76, i64 16, i1 false), !tbaa.struct !294
  call void @llvm.lifetime.start.p0(i64 16, ptr %13) #5
  %77 = getelementptr inbounds nuw %"struct.OpenImageIO::v3_1_0::OpenEXRCoreInput::PartInfo", ptr %14, i32 0, i32 9
  call void @llvm.memcpy.p0.p0.i64(ptr align 1 %13, ptr align 8 %77, i64 16, i1 false), !tbaa.struct !294
  %78 = getelementptr inbounds nuw %struct.exr_attr_box2i_t, ptr %12, i32 0, i32 0
  %79 = getelementptr inbounds nuw %struct.exr_attr_v2i_t, ptr %78, i32 0, i32 0
  %80 = getelementptr inbounds nuw %struct.anon, ptr %79, i32 0, i32 0
  %81 = load i32, ptr %80, align 1, !tbaa !141
  %82 = load ptr, ptr %6, align 8, !tbaa !116
  %83 = getelementptr inbounds nuw %"class.OpenImageIO::v3_1_0::ImageSpec", ptr %82, i32 0, i32 0
  store i32 %81, ptr %83, align 8, !tbaa !295
  %84 = getelementptr inbounds nuw %struct.exr_attr_box2i_t, ptr %12, i32 0, i32 0
  %85 = getelementptr inbounds nuw %struct.exr_attr_v2i_t, ptr %84, i32 0, i32 0
  %86 = getelementptr inbounds nuw %struct.anon, ptr %85, i32 0, i32 1
  %87 = load i32, ptr %86, align 1, !tbaa !141
  %88 = load ptr, ptr %6, align 8, !tbaa !116
  %89 = getelementptr inbounds nuw %"class.OpenImageIO::v3_1_0::ImageSpec", ptr %88, i32 0, i32 1
  store i32 %87, ptr %89, align 4, !tbaa !296
  %90 = load i32, ptr %5, align 4, !tbaa !107
  %91 = icmp eq i32 %90, 0
  br i1 %91, label %92, label %129

92:                                               ; preds = %69
  %93 = getelementptr inbounds nuw %struct.exr_attr_box2i_t, ptr %13, i32 0, i32 0
  %94 = getelementptr inbounds nuw %struct.exr_attr_v2i_t, ptr %93, i32 0, i32 0
  %95 = getelementptr inbounds nuw %struct.anon, ptr %94, i32 0, i32 0
  %96 = load i32, ptr %95, align 1, !tbaa !141
  %97 = load ptr, ptr %6, align 8, !tbaa !116
  %98 = getelementptr inbounds nuw %"class.OpenImageIO::v3_1_0::ImageSpec", ptr %97, i32 0, i32 6
  store i32 %96, ptr %98, align 8, !tbaa !297
  %99 = getelementptr inbounds nuw %struct.exr_attr_box2i_t, ptr %13, i32 0, i32 0
  %100 = getelementptr inbounds nuw %struct.exr_attr_v2i_t, ptr %99, i32 0, i32 0
  %101 = getelementptr inbounds nuw %struct.anon, ptr %100, i32 0, i32 1
  %102 = load i32, ptr %101, align 1, !tbaa !141
  %103 = load ptr, ptr %6, align 8, !tbaa !116
  %104 = getelementptr inbounds nuw %"class.OpenImageIO::v3_1_0::ImageSpec", ptr %103, i32 0, i32 7
  store i32 %102, ptr %104, align 4, !tbaa !298
  %105 = getelementptr inbounds nuw %struct.exr_attr_box2i_t, ptr %13, i32 0, i32 1
  %106 = getelementptr inbounds nuw %struct.exr_attr_v2i_t, ptr %105, i32 0, i32 0
  %107 = getelementptr inbounds nuw %struct.anon, ptr %106, i32 0, i32 0
  %108 = load i32, ptr %107, align 1, !tbaa !141
  %109 = getelementptr inbounds nuw %struct.exr_attr_box2i_t, ptr %13, i32 0, i32 0
  %110 = getelementptr inbounds nuw %struct.exr_attr_v2i_t, ptr %109, i32 0, i32 0
  %111 = getelementptr inbounds nuw %struct.anon, ptr %110, i32 0, i32 0
  %112 = load i32, ptr %111, align 1, !tbaa !141
  %113 = sub nsw i32 %108, %112
  %114 = add nsw i32 %113, 1
  %115 = load ptr, ptr %6, align 8, !tbaa !116
  %116 = getelementptr inbounds nuw %"class.OpenImageIO::v3_1_0::ImageSpec", ptr %115, i32 0, i32 9
  store i32 %114, ptr %116, align 4, !tbaa !299
  %117 = getelementptr inbounds nuw %struct.exr_attr_box2i_t, ptr %13, i32 0, i32 1
  %118 = getelementptr inbounds nuw %struct.exr_attr_v2i_t, ptr %117, i32 0, i32 0
  %119 = getelementptr inbounds nuw %struct.anon, ptr %118, i32 0, i32 1
  %120 = load i32, ptr %119, align 1, !tbaa !141
  %121 = getelementptr inbounds nuw %struct.exr_attr_box2i_t, ptr %13, i32 0, i32 0
  %122 = getelementptr inbounds nuw %struct.exr_attr_v2i_t, ptr %121, i32 0, i32 0
  %123 = getelementptr inbounds nuw %struct.anon, ptr %122, i32 0, i32 1
  %124 = load i32, ptr %123, align 1, !tbaa !141
  %125 = sub nsw i32 %120, %124
  %126 = add nsw i32 %125, 1
  %127 = load ptr, ptr %6, align 8, !tbaa !116
  %128 = getelementptr inbounds nuw %"class.OpenImageIO::v3_1_0::ImageSpec", ptr %127, i32 0, i32 10
  store i32 %126, ptr %128, align 8, !tbaa !300
  br label %150

129:                                              ; preds = %69
  %130 = load ptr, ptr %6, align 8, !tbaa !116
  %131 = getelementptr inbounds nuw %"class.OpenImageIO::v3_1_0::ImageSpec", ptr %130, i32 0, i32 0
  %132 = load i32, ptr %131, align 8, !tbaa !295
  %133 = load ptr, ptr %6, align 8, !tbaa !116
  %134 = getelementptr inbounds nuw %"class.OpenImageIO::v3_1_0::ImageSpec", ptr %133, i32 0, i32 6
  store i32 %132, ptr %134, align 8, !tbaa !297
  %135 = load ptr, ptr %6, align 8, !tbaa !116
  %136 = getelementptr inbounds nuw %"class.OpenImageIO::v3_1_0::ImageSpec", ptr %135, i32 0, i32 1
  %137 = load i32, ptr %136, align 4, !tbaa !296
  %138 = load ptr, ptr %6, align 8, !tbaa !116
  %139 = getelementptr inbounds nuw %"class.OpenImageIO::v3_1_0::ImageSpec", ptr %138, i32 0, i32 7
  store i32 %137, ptr %139, align 4, !tbaa !298
  %140 = load ptr, ptr %6, align 8, !tbaa !116
  %141 = getelementptr inbounds nuw %"class.OpenImageIO::v3_1_0::ImageSpec", ptr %140, i32 0, i32 3
  %142 = load i32, ptr %141, align 4, !tbaa !292
  %143 = load ptr, ptr %6, align 8, !tbaa !116
  %144 = getelementptr inbounds nuw %"class.OpenImageIO::v3_1_0::ImageSpec", ptr %143, i32 0, i32 9
  store i32 %142, ptr %144, align 4, !tbaa !299
  %145 = load ptr, ptr %6, align 8, !tbaa !116
  %146 = getelementptr inbounds nuw %"class.OpenImageIO::v3_1_0::ImageSpec", ptr %145, i32 0, i32 4
  %147 = load i32, ptr %146, align 8, !tbaa !293
  %148 = load ptr, ptr %6, align 8, !tbaa !116
  %149 = getelementptr inbounds nuw %"class.OpenImageIO::v3_1_0::ImageSpec", ptr %148, i32 0, i32 10
  store i32 %147, ptr %149, align 8, !tbaa !300
  br label %150

150:                                              ; preds = %129, %92
  %151 = getelementptr inbounds nuw %"struct.OpenImageIO::v3_1_0::OpenEXRCoreInput::PartInfo", ptr %14, i32 0, i32 6
  %152 = load i8, ptr %151, align 8, !tbaa !203, !range !127, !noundef !128
  %153 = trunc i8 %152 to i1
  br i1 %153, label %154, label %161

154:                                              ; preds = %150
  %155 = load i32, ptr %7, align 4, !tbaa !107
  %156 = load ptr, ptr %6, align 8, !tbaa !116
  %157 = getelementptr inbounds nuw %"class.OpenImageIO::v3_1_0::ImageSpec", ptr %156, i32 0, i32 9
  store i32 %155, ptr %157, align 4, !tbaa !299
  %158 = load i32, ptr %7, align 4, !tbaa !107
  %159 = load ptr, ptr %6, align 8, !tbaa !116
  %160 = getelementptr inbounds nuw %"class.OpenImageIO::v3_1_0::ImageSpec", ptr %159, i32 0, i32 10
  store i32 %158, ptr %160, align 8, !tbaa !300
  br label %161

161:                                              ; preds = %154, %150
  call void @llvm.lifetime.end.p0(i64 16, ptr %13) #5
  call void @llvm.lifetime.end.p0(i64 16, ptr %12) #5
  call void @llvm.lifetime.end.p0(i64 4, ptr %8) #5
  call void @llvm.lifetime.end.p0(i64 4, ptr %7) #5
  br label %162

162:                                              ; preds = %161, %18
  ret void
}