; Function Attrs: mustprogress nofree nounwind uwtable
define hidden void @_ZNK11OpenImageIO6v3_1_016OpenEXRCoreInput8PartInfo14compute_mipresEiRNS0_9ImageSpecE(ptr noundef nonnull readonly align 8 captures(none) dereferenceable(272) %0, i32 noundef %1, ptr noundef nonnull writeonly align 8 captures(none) dereferenceable(160) %2) local_unnamed_addr #13 align 2 {
  %4 = getelementptr inbounds nuw i8, ptr %0, i64 176
  %5 = load i32, ptr %4, align 8, !tbaa !170
  %6 = icmp eq i32 %5, 0
  br i1 %6, label %40, label %7

7:                                                ; preds = %3
  %8 = getelementptr inbounds nuw i8, ptr %0, i64 168
  %9 = load i32, ptr %8, align 8, !tbaa !171
  %10 = getelementptr inbounds nuw i8, ptr %0, i64 172
  %11 = load i32, ptr %10, align 4, !tbaa !172
  switch i32 %5, label %19 [
    i32 1, label %.preheader
    i32 2, label %.loopexit
  ]

.preheader:                                       ; preds = %7
  %.not47 = icmp eq i32 %1, 0
  br i1 %.not47, label %.loopexit, label %.lr.ph

.lr.ph:                                           ; preds = %.preheader
  %12 = getelementptr inbounds nuw i8, ptr %0, i64 180
  %13 = load i32, ptr %12, align 4, !tbaa !206
  %.fr53 = freeze i32 %13
  %14 = icmp eq i32 %.fr53, 0
  br i1 %14, label %.lr.ph.split.us, label %.lr.ph.split

.lr.ph.split.us:                                  ; preds = %.lr.ph, %.lr.ph.split.us
  %.050.us = phi i32 [ %15, %.lr.ph.split.us ], [ %1, %.lr.ph ]
  %.04449.us = phi i32 [ %.sroa.speculated30.us, %.lr.ph.split.us ], [ %9, %.lr.ph ]
  %.04548.us = phi i32 [ %.sroa.speculated.us, %.lr.ph.split.us ], [ %11, %.lr.ph ]
  %.1.us = sdiv i32 %.04449.us, 2
  %storemerge.us = sdiv i32 %.04548.us, 2
  %.sroa.speculated30.us = tail call i32 @llvm.smax.i32(i32 %.1.us, i32 1)
  %.sroa.speculated.us = tail call i32 @llvm.smax.i32(i32 %storemerge.us, i32 1)
  %15 = add nsw i32 %.050.us, -1
  %.not.us = icmp eq i32 %15, 0
  br i1 %.not.us, label %.loopexit, label %.lr.ph.split.us, !llvm.loop !295

.lr.ph.split:                                     ; preds = %.lr.ph, %.lr.ph.split
  %.050 = phi i32 [ %18, %.lr.ph.split ], [ %1, %.lr.ph ]
  %.04449 = phi i32 [ %.sroa.speculated30, %.lr.ph.split ], [ %9, %.lr.ph ]
  %.04548 = phi i32 [ %.sroa.speculated, %.lr.ph.split ], [ %11, %.lr.ph ]
  %16 = add nsw i32 %.04449, 1
  %17 = add nsw i32 %.04548, 1
  %.1 = sdiv i32 %16, 2
  %storemerge = sdiv i32 %17, 2
  %.sroa.speculated30 = tail call i32 @llvm.smax.i32(i32 %.1, i32 1)
  %.sroa.speculated = tail call i32 @llvm.smax.i32(i32 %storemerge, i32 1)
  %18 = add nsw i32 %.050, -1
  %.not = icmp eq i32 %18, 0
  br i1 %.not, label %.loopexit, label %.lr.ph.split, !llvm.loop !295

19:                                               ; preds = %7
  %20 = load ptr, ptr @stderr, align 8, !tbaa !173
  %21 = tail call i32 (ptr, ptr, ...) @fprintf(ptr noundef %20, ptr noundef nonnull @.str.81, ptr noundef nonnull @.str.82, i32 noundef 1015, ptr noundef nonnull @__FUNCTION__._ZNK11OpenImageIO6v3_1_016OpenEXRCoreInput8PartInfo14compute_mipresEiRNS0_9ImageSpecE, ptr noundef nonnull @.str.83, i32 noundef %5) #32
  br label %.loopexit

.loopexit:                                        ; preds = %.lr.ph.split, %.lr.ph.split.us, %.preheader, %7, %19
  %.146 = phi i32 [ %11, %19 ], [ %11, %7 ], [ %11, %.preheader ], [ %.sroa.speculated.us, %.lr.ph.split.us ], [ %.sroa.speculated, %.lr.ph.split ]
  %.2 = phi i32 [ %9, %19 ], [ %9, %7 ], [ %9, %.preheader ], [ %.sroa.speculated30.us, %.lr.ph.split.us ], [ %.sroa.speculated30, %.lr.ph.split ]
  %22 = getelementptr inbounds nuw i8, ptr %2, i64 12
  store i32 %.2, ptr %22, align 4, !tbaa !175
  %23 = getelementptr inbounds nuw i8, ptr %2, i64 16
  store i32 %.146, ptr %23, align 8, !tbaa !176
  %24 = getelementptr inbounds nuw i8, ptr %0, i64 192
  %.sroa.03.0.copyload = load i32, ptr %24, align 8
  %.sroa.4.0..sroa_idx = getelementptr inbounds nuw i8, ptr %0, i64 196
  %.sroa.4.0.copyload = load i32, ptr %.sroa.4.0..sroa_idx, align 4, !tbaa !67
  %25 = getelementptr inbounds nuw i8, ptr %0, i64 208
  %.sroa.0.0.copyload = load i32, ptr %25, align 8
  %.sroa.5.0..sroa_idx = getelementptr inbounds nuw i8, ptr %0, i64 212
  %.sroa.5.0.copyload = load i32, ptr %.sroa.5.0..sroa_idx, align 4, !tbaa !67
  %.sroa.7.0..sroa_idx = getelementptr inbounds nuw i8, ptr %0, i64 216
  %.sroa.7.0.copyload = load i32, ptr %.sroa.7.0..sroa_idx, align 8
  %.sroa.8.0..sroa_idx = getelementptr inbounds nuw i8, ptr %0, i64 220
  %.sroa.8.0.copyload = load i32, ptr %.sroa.8.0..sroa_idx, align 4, !tbaa !67
  store i32 %.sroa.03.0.copyload, ptr %2, align 8, !tbaa !177
  %26 = getelementptr inbounds nuw i8, ptr %2, i64 4
  store i32 %.sroa.4.0.copyload, ptr %26, align 4, !tbaa !178
  %27 = icmp eq i32 %1, 0
  br i1 %27, label %28, label %31

28:                                               ; preds = %.loopexit
  %reass.sub = sub i32 %.sroa.7.0.copyload, %.sroa.0.0.copyload
  %29 = add i32 %reass.sub, 1
  %reass.sub54 = sub i32 %.sroa.8.0.copyload, %.sroa.5.0.copyload
  %30 = add i32 %reass.sub54, 1
  br label %31

31:                                               ; preds = %.loopexit, %28
  %.sroa.03.0.copyload.sink = phi i32 [ %.sroa.0.0.copyload, %28 ], [ %.sroa.03.0.copyload, %.loopexit ]
  %.sroa.4.0.copyload.sink = phi i32 [ %.sroa.5.0.copyload, %28 ], [ %.sroa.4.0.copyload, %.loopexit ]
  %.2.sink = phi i32 [ %29, %28 ], [ %.2, %.loopexit ]
  %.146.sink = phi i32 [ %30, %28 ], [ %.146, %.loopexit ]
  %32 = getelementptr inbounds nuw i8, ptr %2, i64 24
  store i32 %.sroa.03.0.copyload.sink, ptr %32, align 8, !tbaa !179
  %33 = getelementptr inbounds nuw i8, ptr %2, i64 28
  store i32 %.sroa.4.0.copyload.sink, ptr %33, align 4, !tbaa !180
  %34 = getelementptr inbounds nuw i8, ptr %2, i64 36
  store i32 %.2.sink, ptr %34, align 4, !tbaa !181
  %35 = getelementptr inbounds nuw i8, ptr %2, i64 40
  store i32 %.146.sink, ptr %35, align 8, !tbaa !182
  %36 = getelementptr inbounds nuw i8, ptr %0, i64 184
  %37 = load i8, ptr %36, align 8, !tbaa !183, !range !98, !noundef !99
  %38 = trunc nuw i8 %37 to i1
  br i1 %38, label %39, label %40

39:                                               ; preds = %31
  store i32 %.2, ptr %34, align 4, !tbaa !181
  store i32 %.2, ptr %35, align 8, !tbaa !182
  br label %40

40:                                               ; preds = %31, %39, %3
  ret void
}